; Function Attrs: mustprogress uwtable
define dso_local void @_ZN29cmLocalUnixMakefileGenerator317ConvertToFullPathERKNSt7__cxx1112basic_stringIcSt11char_traitsIcESaIcEEE(ptr dead_on_unwind noalias writable sret(%"class.std::__cxx11::basic_string") align 8 %0, ptr noundef nonnull align 8 dereferenceable(1112) %1, ptr noundef nonnull align 8 dereferenceable(32) %2) local_unnamed_addr #3 align 2 {
  %4 = alloca [3 x %"struct.std::pair.1037"], align 8
  %5 = alloca %class.cmAlphaNum, align 8
  %6 = tail call noundef nonnull align 8 dereferenceable(32) ptr @_ZNK16cmLocalGenerator25GetCurrentBinaryDirectoryB5cxx11Ev(ptr noundef nonnull align 8 dereferenceable(824) %1)
  call void @llvm.lifetime.start.p0(i64 72, ptr nonnull %4)
  call void @llvm.lifetime.start.p0(i64 56, ptr nonnull %5)
  %7 = tail call { i64, ptr } @_ZNKSt7__cxx1112basic_stringIcSt11char_traitsIcESaIcEEcvSt17basic_string_viewIcS2_EEv(ptr noundef nonnull align 8 dereferenceable(32) %6) #20, !noalias !72
  %8 = extractvalue { i64, ptr } %7, 0
  %9 = extractvalue { i64, ptr } %7, 1
  store i64 %8, ptr %4, align 8, !alias.scope !75, !noalias !72
  %.sroa.2.0..sroa_idx.i.i = getelementptr inbounds i8, ptr %4, i64 8
  store ptr %9, ptr %.sroa.2.0..sroa_idx.i.i, align 8, !alias.scope !75, !noalias !72
  %10 = getelementptr inbounds i8, ptr %4, i64 16
  store ptr null, ptr %10, align 8, !alias.scope !75, !noalias !72
  %11 = getelementptr inbounds i8, ptr %4, i64 24
  store ptr null, ptr %5, align 8, !noalias !72
  %12 = getelementptr inbounds i8, ptr %5, i64 8
  %13 = getelementptr inbounds i8, ptr %5, i64 24
  store i64 1, ptr %12, align 8, !noalias !72
  %14 = getelementptr inbounds i8, ptr %5, i64 16
  store ptr %13, ptr %14, align 8, !noalias !72
  store i8 47, ptr %13, align 8, !noalias !72
  store i64 1, ptr %11, align 8, !alias.scope !78, !noalias !72
  %.sroa.2.0..sroa_idx.i7.i = getelementptr inbounds i8, ptr %4, i64 32
  store ptr %13, ptr %.sroa.2.0..sroa_idx.i7.i, align 8, !alias.scope !78, !noalias !72
  %15 = getelementptr inbounds i8, ptr %4, i64 40
  store ptr null, ptr %15, align 8, !alias.scope !78, !noalias !72
  %16 = getelementptr inbounds i8, ptr %4, i64 48
  %17 = call { i64, ptr } @_ZNKSt7__cxx1112basic_stringIcSt11char_traitsIcESaIcEEcvSt17basic_string_viewIcS2_EEv(ptr noundef nonnull align 8 dereferenceable(32) %2) #20, !noalias !72
  %18 = extractvalue { i64, ptr } %17, 0
  %19 = extractvalue { i64, ptr } %17, 1
  store i64 %18, ptr %16, align 8, !alias.scope !81, !noalias !72
  %.sroa.2.0..sroa_idx.i16.i = getelementptr inbounds i8, ptr %4, i64 56
  store ptr %19, ptr %.sroa.2.0..sroa_idx.i16.i, align 8, !alias.scope !81, !noalias !72
  %20 = getelementptr inbounds i8, ptr %4, i64 64
  store ptr null, ptr %20, align 8, !alias.scope !81, !noalias !72
  call void @_Z10cmCatViewsSt16initializer_listISt4pairISt17basic_string_viewIcSt11char_traitsIcEEPNSt7__cxx1112basic_stringIcS3_SaIcEEEEE(ptr dead_on_unwind writable sret(%"class.std::__cxx11::basic_string") align 8 %0, ptr nonnull %4, i64 3)
  call void @llvm.lifetime.end.p0(i64 72, ptr nonnull %4)
  call void @llvm.lifetime.end.p0(i64 56, ptr nonnull %5)
  ret void
}